; Function Attrs: nounwind uwtable
define range(i32 -1, 1) i32 @H5Pget_sym_k(i64 noundef %0, ptr noundef writeonly %1, ptr noundef %2) local_unnamed_addr #0 {
  %4 = alloca [2 x i32], align 4
  %5 = load i8, ptr @H5_libinit_g, align 1
  %6 = trunc i8 %5 to i1
  %7 = load i8, ptr @H5_libterm_g, align 1
  %8 = trunc i8 %7 to i1
  %9 = select i1 %6, i1 true, i1 %8
  br i1 %9, label %17, label %10

10:                                               ; preds = %3
  %11 = tail call i32 @H5_init_library() #6
  %12 = icmp slt i32 %11, 0
  br i1 %12, label %13, label %17

13:                                               ; preds = %10
  %14 = load i64, ptr @H5E_FUNC_g, align 8
  %15 = load i64, ptr @H5E_CANTINIT_g, align 8
  %16 = tail call i32 (ptr, ptr, i32, i64, i64, ptr, ...) @H5E_printf_stack(ptr noundef nonnull @.str.1, ptr noundef nonnull @__func__.H5Pget_sym_k, i32 noundef 545, i64 noundef %14, i64 noundef %15, ptr noundef nonnull @.str.2) #6
  br label %.thread28

17:                                               ; preds = %10, %3
  %18 = tail call i32 @H5CX_push() #6
  %19 = icmp slt i32 %18, 0
  br i1 %19, label %20, label %24

20:                                               ; preds = %17
  %21 = load i64, ptr @H5E_FUNC_g, align 8
  %22 = load i64, ptr @H5E_CANTSET_g, align 8
  %23 = tail call i32 (ptr, ptr, i32, i64, i64, ptr, ...) @H5E_printf_stack(ptr noundef nonnull @.str.1, ptr noundef nonnull @__func__.H5Pget_sym_k, i32 noundef 545, i64 noundef %21, i64 noundef %22, ptr noundef nonnull @.str.3) #6
  br label %.thread28

24:                                               ; preds = %17
  %25 = tail call i32 @H5E_clear_stack() #6
  %26 = load i64, ptr @H5P_CLS_FILE_CREATE_ID_g, align 8
  %27 = tail call ptr @H5P_object_verify(i64 noundef %0, i64 noundef %26) #6
  %28 = icmp eq ptr %27, null
  br i1 %28, label %29, label %33

29:                                               ; preds = %24
  %30 = load i64, ptr @H5E_ID_g, align 8
  %31 = load i64, ptr @H5E_BADID_g, align 8
  %32 = tail call i32 (ptr, ptr, i32, i64, i64, ptr, ...) @H5E_printf_stack(ptr noundef nonnull @.str.1, ptr noundef nonnull @__func__.H5Pget_sym_k, i32 noundef 549, i64 noundef %30, i64 noundef %31, ptr noundef nonnull @.str.6) #6
  br label %.thread34

33:                                               ; preds = %24
  %.not = icmp eq ptr %1, null
  br i1 %.not, label %43, label %34

34:                                               ; preds = %33
  %35 = call i32 @H5P_get(ptr noundef nonnull %27, ptr noundef nonnull @.str.19, ptr noundef nonnull %4) #6
  %36 = icmp slt i32 %35, 0
  br i1 %36, label %37, label %41

37:                                               ; preds = %34
  %38 = load i64, ptr @H5E_PLIST_g, align 8
  %39 = load i64, ptr @H5E_CANTGET_g, align 8
  %40 = call i32 (ptr, ptr, i32, i64, i64, ptr, ...) @H5E_printf_stack(ptr noundef nonnull @.str.1, ptr noundef nonnull @__func__.H5Pget_sym_k, i32 noundef 554, i64 noundef %38, i64 noundef %39, ptr noundef nonnull @.str.24) #6
  br label %.thread34

41:                                               ; preds = %34
  %42 = load i32, ptr %4, align 4
  store i32 %42, ptr %1, align 4
  br label %43

43:                                               ; preds = %41, %33
  %.not19 = icmp eq ptr %2, null
  br i1 %.not19, label %52, label %44

44:                                               ; preds = %43
  %45 = call i32 @H5P_get(ptr noundef nonnull %27, ptr noundef nonnull @.str.22, ptr noundef nonnull %2) #6
  %46 = icmp slt i32 %45, 0
  br i1 %46, label %47, label %52

47:                                               ; preds = %44
  %48 = load i64, ptr @H5E_PLIST_g, align 8
  %49 = load i64, ptr @H5E_CANTGET_g, align 8
  %50 = call i32 (ptr, ptr, i32, i64, i64, ptr, ...) @H5E_printf_stack(ptr noundef nonnull @.str.1, ptr noundef nonnull @__func__.H5Pget_sym_k, i32 noundef 559, i64 noundef %48, i64 noundef %49, ptr noundef nonnull @.str.25) #6
  br label %.thread34

.thread34:                                        ; preds = %47, %37, %29
  %51 = call i32 @H5CX_pop(i1 noundef zeroext true) #6
  br label %.thread28

52:                                               ; preds = %43, %44
  %53 = call i32 @H5CX_pop(i1 noundef zeroext true) #6
  br label %55

.thread28:                                        ; preds = %20, %13, %.thread34
  %54 = call i32 @H5E_dump_api_stack() #6
  br label %55

55:                                               ; preds = %52, %.thread28
  %.0152331 = phi i32 [ -1, %.thread28 ], [ 0, %52 ]
  ret i32 %.0152331
}